target datalayout = "e-m:e-p270:32:32-p271:32:32-p272:64:64-i64:64-i128:128-f80:128-n8:16:32:64-S128"
target triple = "x86_64-pc-linux-gnu"

%struct.tMPI_Atomic = type { i32, [60 x i8] }
%struct.tMPI_Thread_cond_t = type { %struct.tMPI_Atomic, ptr }
%struct.tMPI_Thread_cond = type { %union.pthread_cond_t }
%union.pthread_cond_t = type { %struct.__pthread_cond_s }
%struct.__pthread_cond_s = type { %union.__atomic_wide_counter, %union.__atomic_wide_counter, [2 x i32], [2 x i32], i32, i32, [2 x i32] }
%union.__atomic_wide_counter = type { i64 }

; Function Attrs: mustprogress nounwind uwtable
define noundef i32 @_Z21tMPI_Thread_cond_initP18tMPI_Thread_cond_t(ptr noundef %0) #0 {
  %2 = alloca i32, align 4
  %3 = alloca ptr, align 8
  %4 = alloca i32, align 4
  store ptr %0, ptr %3, align 8
  %5 = load ptr, ptr %3, align 8
  %6 = icmp eq ptr %5, null
  br i1 %6, label %7, label %8

7:                                                ; preds = %1
  store i32 22, ptr %2, align 4
  br label %31

8:                                                ; preds = %1
  %9 = call noalias ptr @malloc(i64 noundef 48) #9
  %10 = load ptr, ptr %3, align 8
  %11 = getelementptr inbounds %struct.tMPI_Thread_cond_t, ptr %10, i32 0, i32 1
  store ptr %9, ptr %11, align 8
  %12 = load ptr, ptr %3, align 8
  %13 = getelementptr inbounds %struct.tMPI_Thread_cond_t, ptr %12, i32 0, i32 1
  %14 = load ptr, ptr %13, align 8
  %15 = icmp eq ptr %14, null
  br i1 %15, label %16, label %17

16:                                               ; preds = %8
  store i32 12, ptr %2, align 4
  br label %31

17:                                               ; preds = %8
  %18 = load ptr, ptr %3, align 8
  %19 = getelementptr inbounds %struct.tMPI_Thread_cond_t, ptr %18, i32 0, i32 1
  %20 = load ptr, ptr %19, align 8
  %21 = getelementptr inbounds %struct.tMPI_Thread_cond, ptr %20, i32 0, i32 0
  %22 = call i32 @pthread_cond_init(ptr noundef %21, ptr noundef null) #8
  store i32 %22, ptr %4, align 4
  %23 = load i32, ptr %4, align 4
  %24 = icmp ne i32 %23, 0
  br i1 %24, label %25, label %27

25:                                               ; preds = %17
  %26 = load i32, ptr %4, align 4
  store i32 %26, ptr %2, align 4
  br label %31

27:                                               ; preds = %17
  %28 = load ptr, ptr %3, align 8
  %29 = getelementptr inbounds %struct.tMPI_Thread_cond_t, ptr %28, i32 0, i32 0
  %30 = getelementptr inbounds %struct.tMPI_Atomic, ptr %29, i32 0, i32 0
  store i32 1, ptr %30, align 8
  fence seq_cst
  store i32 0, ptr %2, align 4
  br label %31

31:                                               ; preds = %27, %25, %16, %7
  %32 = load i32, ptr %2, align 4
  ret i32 %32
}